target datalayout = "e-m:e-p270:32:32-p271:32:32-p272:64:64-i64:64-i128:128-f80:128-n8:16:32:64-S128"
target triple = "x86_64-unknown-linux-gnu"

%struct.riscv_csr_operations = type { ptr, ptr, ptr, ptr, ptr, ptr, ptr, i32 }
%struct.RISCVCPUConfig = type { i8, i8, i8, i8, i8, i8, i8, i8, i8, i8, i8, i8, i8, i8, i8, i8, i8, i8, i8, i8, i8, i8, i8, i8, i8, i8, i8, i8, i8, i8, i8, i8, i8, i8, i8, i8, i8, i8, i8, i8, i8, i8, i8, i8, i8, i8, i8, i8, i8, i8, i8, i8, i8, i8, i8, i8, i8, i8, i8, i8, i8, i8, i8, i8, i8, i8, i8, i8, i8, i8, i8, i8, i8, i8, i8, i8, i8, i8, i32, i64, i64, i8, i8, i8, i8, i8, i8, i8, i8, i8, i8, i8, i8, i32, ptr, ptr, ptr, ptr, i16, i16, i16, i16, i8, i8, i8, i8, i8 }
%struct.CPUArchState = type { [32 x i64], [32 x i64], [512 x i64], i64, i64, i64, i64, i64, i8, i64, i64, i64, [32 x i64], i64, %struct.float_status, i64, i64, i64, i64, i64, i64, i32, i32, i32, i32, i32, i64, i64, i32, i64, i64, ptr, ptr, i8, i64, i64, [8 x i8] }
%struct.float_status = type { i16, i8, i8, i8, i8, i8, i8, i8, i8, i8, i8, i8 }
%struct.ArchCPU = type { %struct.CPUState, %struct.CPUArchState, ptr, ptr, %struct.RISCVCPUConfig, ptr, i32, ptr }
%struct.CPUState = type { %struct.DeviceState, ptr, i32, i32, ptr, i32, i8, i8, ptr, i8, i8, i8, i8, i8, i8, i8, i8, i32, i32, i32, i32, i64, i64, i64, [1 x %struct.__jmp_buf_tag], %struct.QemuMutex, %struct.anon, ptr, i32, ptr, ptr, ptr, ptr, i32, i32, %union.anon, %union.anon.0, %union.anon.1, ptr, ptr, i64, i32, ptr, ptr, ptr, i32, i64, i32, %struct.QemuLockCnt, [1 x i64], ptr, i32, i32, i32, i32, i32, ptr, i8, i8, i64, i8, i8, ptr, [8 x i8], [0 x i8], %struct.CPUNegativeOffsetState }
%struct.DeviceState = type { %struct.Object, ptr, ptr, i8, i8, i64, ptr, i32, i8, ptr, %struct.NamedGPIOListHead, %struct.NamedClockListHead, %struct.BusStateHead, i32, i32, i32, %struct.ResettableState, ptr, %struct.MemReentrancyGuard }
%struct.Object = type { ptr, ptr, ptr, i32, ptr }
%struct.NamedGPIOListHead = type { ptr }
%struct.NamedClockListHead = type { ptr }
%struct.BusStateHead = type { ptr }
%struct.ResettableState = type { i32, i8, i8 }
%struct.MemReentrancyGuard = type { i8 }
%struct.__jmp_buf_tag = type { [8 x i64], i32, %struct.__sigset_t }
%struct.__sigset_t = type { [16 x i64] }
%struct.QemuMutex = type { %union.pthread_mutex_t, i8 }
%union.pthread_mutex_t = type { %struct.__pthread_mutex_s }
%struct.__pthread_mutex_s = type { i32, i32, i32, i32, i32, i16, i16, %struct.__pthread_internal_list }
%struct.__pthread_internal_list = type { ptr, ptr }
%struct.anon = type { ptr, ptr }
%union.anon = type { %struct.QTailQLink }
%struct.QTailQLink = type { ptr, ptr }
%union.anon.0 = type { %struct.QTailQLink }
%union.anon.1 = type { %struct.QTailQLink }
%struct.QemuLockCnt = type { i32 }
%struct.CPUNegativeOffsetState = type { %struct.CPUTLB, %union.IcountDecr, i8, [11 x i8] }
%struct.CPUTLB = type { %struct.CPUTLBCommon, [16 x %struct.CPUTLBDesc], [16 x %struct.CPUTLBDescFast] }
%struct.CPUTLBCommon = type { %struct.QemuSpin, i16, i64, i64, i64 }
%struct.QemuSpin = type { i32 }
%struct.CPUTLBDesc = type { i64, i64, i64, i64, i64, i64, [8 x %union.CPUTLBEntry], [8 x %struct.CPUTLBEntryFull], ptr }
%union.CPUTLBEntry = type { %struct.anon.2 }
%struct.anon.2 = type { i64, i64, i64, i64 }
%struct.CPUTLBEntryFull = type { i64, i64, %struct.MemTxAttrs, i8, i8, [3 x i8], %union.anon.3 }
%struct.MemTxAttrs = type { i32 }
%union.anon.3 = type { %struct.anon.4 }
%struct.anon.4 = type { i8, i8, i8 }
%struct.CPUTLBDescFast = type { i64, ptr }
%union.IcountDecr = type { i32 }

; Function Attrs: nounwind sspstrong uwtable
define internal ptr @env_archcpu(ptr noundef %env) #0 {
entry:
  %env.addr = alloca ptr, align 8
  store ptr %env, ptr %env.addr, align 8
  %0 = load ptr, ptr %env.addr, align 8
  %add.ptr = getelementptr i8, ptr %0, i64 -10176
  ret ptr %add.ptr
}

; Function Attrs: nounwind sspstrong uwtable
define internal ptr @riscv_cpu_cfg(ptr noundef %env) #0 {
entry:
  %env.addr = alloca ptr, align 8
  store ptr %env, ptr %env.addr, align 8
  %0 = load ptr, ptr %env.addr, align 8
  %call = call ptr @env_archcpu(ptr noundef %0)
  %cfg = getelementptr inbounds %struct.ArchCPU, ptr %call, i32 0, i32 4
  ret ptr %cfg
}

; Function Attrs: nounwind sspstrong uwtable
define internal i32 @riscv_csrrw_do64(ptr noundef %env, i32 noundef %csrno, ptr noundef %ret_value, i64 noundef %new_value, i64 noundef %write_mask) #0 {
entry:
  %retval = alloca i32, align 4
  %env.addr = alloca ptr, align 8
  %csrno.addr = alloca i32, align 4
  %ret_value.addr = alloca ptr, align 8
  %new_value.addr = alloca i64, align 8
  %write_mask.addr = alloca i64, align 8
  %ret = alloca i32, align 4
  %old_value = alloca i64, align 8
  store ptr %env, ptr %env.addr, align 8
  store i32 %csrno, ptr %csrno.addr, align 4
  store ptr %ret_value, ptr %ret_value.addr, align 8
  store i64 %new_value, ptr %new_value.addr, align 8
  store i64 %write_mask, ptr %write_mask.addr, align 8
  store i64 0, ptr %old_value, align 8
  %0 = load i32, ptr %csrno.addr, align 4
  %idxprom = sext i32 %0 to i64
  %arrayidx = getelementptr [4096 x %struct.riscv_csr_operations], ptr @csr_ops, i64 0, i64 %idxprom
  %op = getelementptr inbounds %struct.riscv_csr_operations, ptr %arrayidx, i32 0, i32 4
  %1 = load ptr, ptr %op, align 16
  %tobool = icmp ne ptr %1, null
  br i1 %tobool, label %if.then, label %if.end

if.then:                                          ; preds = %entry
  %2 = load i32, ptr %csrno.addr, align 4
  %idxprom1 = sext i32 %2 to i64
  %arrayidx2 = getelementptr [4096 x %struct.riscv_csr_operations], ptr @csr_ops, i64 0, i64 %idxprom1
  %op3 = getelementptr inbounds %struct.riscv_csr_operations, ptr %arrayidx2, i32 0, i32 4
  %3 = load ptr, ptr %op3, align 16
  %4 = load ptr, ptr %env.addr, align 8
  %5 = load i32, ptr %csrno.addr, align 4
  %6 = load ptr, ptr %ret_value.addr, align 8
  %7 = load i64, ptr %new_value.addr, align 8
  %8 = load i64, ptr %write_mask.addr, align 8
  %call = call i32 %3(ptr noundef %4, i32 noundef %5, ptr noundef %6, i64 noundef %7, i64 noundef %8)
  store i32 %call, ptr %retval, align 4
  br label %return

if.end:                                           ; preds = %entry
  %9 = load ptr, ptr %ret_value.addr, align 8
  %tobool4 = icmp ne ptr %9, null
  br i1 %tobool4, label %if.then5, label %if.end17

if.then5:                                         ; preds = %if.end
  %10 = load i32, ptr %csrno.addr, align 4
  %idxprom6 = sext i32 %10 to i64
  %arrayidx7 = getelementptr [4096 x %struct.riscv_csr_operations], ptr @csr_ops, i64 0, i64 %idxprom6
  %read = getelementptr inbounds %struct.riscv_csr_operations, ptr %arrayidx7, i32 0, i32 2
  %11 = load ptr, ptr %read, align 16
  %tobool8 = icmp ne ptr %11, null
  br i1 %tobool8, label %if.end10, label %if.then9

if.then9:                                         ; preds = %if.then5
  store i32 2, ptr %retval, align 4
  br label %return

if.end10:                                         ; preds = %if.then5
  %12 = load i32, ptr %csrno.addr, align 4
  %idxprom11 = sext i32 %12 to i64
  %arrayidx12 = getelementptr [4096 x %struct.riscv_csr_operations], ptr @csr_ops, i64 0, i64 %idxprom11
  %read13 = getelementptr inbounds %struct.riscv_csr_operations, ptr %arrayidx12, i32 0, i32 2
  %13 = load ptr, ptr %read13, align 16
  %14 = load ptr, ptr %env.addr, align 8
  %15 = load i32, ptr %csrno.addr, align 4
  %call14 = call i32 %13(ptr noundef %14, i32 noundef %15, ptr noundef %old_value)
  store i32 %call14, ptr %ret, align 4
  %16 = load i32, ptr %ret, align 4
  %cmp = icmp ne i32 %16, -1
  br i1 %cmp, label %if.then15, label %if.end16

if.then15:                                        ; preds = %if.end10
  %17 = load i32, ptr %ret, align 4
  store i32 %17, ptr %retval, align 4
  br label %return

if.end16:                                         ; preds = %if.end10
  br label %if.end17

if.end17:                                         ; preds = %if.end16, %if.end
  %18 = load i64, ptr %write_mask.addr, align 8
  %tobool18 = icmp ne i64 %18, 0
  br i1 %tobool18, label %if.then19, label %if.end33

if.then19:                                        ; preds = %if.end17
  %19 = load i64, ptr %old_value, align 8
  %20 = load i64, ptr %write_mask.addr, align 8
  %not = xor i64 %20, -1
  %and = and i64 %19, %not
  %21 = load i64, ptr %new_value.addr, align 8
  %22 = load i64, ptr %write_mask.addr, align 8
  %and20 = and i64 %21, %22
  %or = or i64 %and, %and20
  store i64 %or, ptr %new_value.addr, align 8
  %23 = load i32, ptr %csrno.addr, align 4
  %idxprom21 = sext i32 %23 to i64
  %arrayidx22 = getelementptr [4096 x %struct.riscv_csr_operations], ptr @csr_ops, i64 0, i64 %idxprom21
  %write = getelementptr inbounds %struct.riscv_csr_operations, ptr %arrayidx22, i32 0, i32 3
  %24 = load ptr, ptr %write, align 8
  %tobool23 = icmp ne ptr %24, null
  br i1 %tobool23, label %if.then24, label %if.end32

if.then24:                                        ; preds = %if.then19
  %25 = load i32, ptr %csrno.addr, align 4
  %idxprom25 = sext i32 %25 to i64
  %arrayidx26 = getelementptr [4096 x %struct.riscv_csr_operations], ptr @csr_ops, i64 0, i64 %idxprom25
  %write27 = getelementptr inbounds %struct.riscv_csr_operations, ptr %arrayidx26, i32 0, i32 3
  %26 = load ptr, ptr %write27, align 8
  %27 = load ptr, ptr %env.addr, align 8
  %28 = load i32, ptr %csrno.addr, align 4
  %29 = load i64, ptr %new_value.addr, align 8
  %call28 = call i32 %26(ptr noundef %27, i32 noundef %28, i64 noundef %29)
  store i32 %call28, ptr %ret, align 4
  %30 = load i32, ptr %ret, align 4
  %cmp29 = icmp ne i32 %30, -1
  br i1 %cmp29, label %if.then30, label %if.end31

if.then30:                                        ; preds = %if.then24
  %31 = load i32, ptr %ret, align 4
  store i32 %31, ptr %retval, align 4
  br label %return

if.end31:                                         ; preds = %if.then24
  br label %if.end32

if.end32:                                         ; preds = %if.end31, %if.then19
  br label %if.end33

if.end33:                                         ; preds = %if.end32, %if.end17
  %32 = load ptr, ptr %ret_value.addr, align 8
  %tobool34 = icmp ne ptr %32, null
  br i1 %tobool34, label %if.then35, label %if.end36

if.then35:                                        ; preds = %if.end33
  %33 = load i64, ptr %old_value, align 8
  %34 = load ptr, ptr %ret_value.addr, align 8
  store i64 %33, ptr %34, align 8
  br label %if.end36

if.end36:                                         ; preds = %if.then35, %if.end33
  store i32 -1, ptr %retval, align 4
  br label %return

return:                                           ; preds = %if.end36, %if.then30, %if.then15, %if.then9, %if.then
  %35 = load i32, ptr %retval, align 4
  ret i32 %35
}

; Function Attrs: nounwind sspstrong uwtable
define internal i32 @riscv_csrrw_check(ptr noundef %env, i32 noundef %csrno, i1 noundef zeroext %write_mask) #0 {
entry:
  %retval = alloca i32, align 4
  %env.addr = alloca ptr, align 8
  %csrno.addr = alloca i32, align 4
  %write_mask.addr = alloca i8, align 1
  %read_only = alloca i8, align 1
  %csr_min_priv = alloca i32, align 4
  %ret = alloca i32, align 4
  store ptr %env, ptr %env.addr, align 8
  store i32 %csrno, ptr %csrno.addr, align 4
  %frombool = zext i1 %write_mask to i8
  store i8 %frombool, ptr %write_mask.addr, align 1
  %0 = load i32, ptr %csrno.addr, align 4
  %conv = sext i32 %0 to i64
  %and = and i64 %conv, 3072
  %div = udiv i64 %and, 1024
  %cmp = icmp eq i64 %div, 3
  %frombool2 = zext i1 %cmp to i8
  store i8 %frombool2, ptr %read_only, align 1
  %1 = load i32, ptr %csrno.addr, align 4
  %idxprom = sext i32 %1 to i64
  %arrayidx = getelementptr [4096 x %struct.riscv_csr_operations], ptr @csr_ops, i64 0, i64 %idxprom
  %min_priv_ver = getelementptr inbounds %struct.riscv_csr_operations, ptr %arrayidx, i32 0, i32 7
  %2 = load i32, ptr %min_priv_ver, align 8
  store i32 %2, ptr %csr_min_priv, align 4
  %3 = load ptr, ptr %env.addr, align 8
  %call = call ptr @riscv_cpu_cfg(ptr noundef %3)
  %ext_zicsr = getelementptr inbounds %struct.RISCVCPUConfig, ptr %call, i32 0, i32 26
  %4 = load i8, ptr %ext_zicsr, align 2
  %tobool = trunc i8 %4 to i1
  br i1 %tobool, label %if.end, label %if.then

if.then:                                          ; preds = %entry
  store i32 2, ptr %retval, align 4
  br label %return

if.end:                                           ; preds = %entry
  %5 = load i32, ptr %csrno.addr, align 4
  %idxprom3 = sext i32 %5 to i64
  %arrayidx4 = getelementptr [4096 x %struct.riscv_csr_operations], ptr @csr_ops, i64 0, i64 %idxprom3
  %predicate = getelementptr inbounds %struct.riscv_csr_operations, ptr %arrayidx4, i32 0, i32 1
  %6 = load ptr, ptr %predicate, align 8
  %tobool5 = icmp ne ptr %6, null
  br i1 %tobool5, label %if.end7, label %if.then6

if.then6:                                         ; preds = %if.end
  store i32 2, ptr %retval, align 4
  br label %return

if.end7:                                          ; preds = %if.end
  %7 = load ptr, ptr %env.addr, align 8
  %priv_ver = getelementptr inbounds %struct.CPUArchState, ptr %7, i32 0, i32 18
  %8 = load i64, ptr %priv_ver, align 8
  %9 = load i32, ptr %csr_min_priv, align 4
  %conv8 = sext i32 %9 to i64
  %cmp9 = icmp ult i64 %8, %conv8
  br i1 %cmp9, label %if.then11, label %if.end12

if.then11:                                        ; preds = %if.end7
  store i32 2, ptr %retval, align 4
  br label %return

if.end12:                                         ; preds = %if.end7
  %10 = load i8, ptr %write_mask.addr, align 1
  %tobool13 = trunc i8 %10 to i1
  br i1 %tobool13, label %land.lhs.true, label %if.end18

land.lhs.true:                                    ; preds = %if.end12
  %11 = load i8, ptr %read_only, align 1
  %tobool15 = trunc i8 %11 to i1
  br i1 %tobool15, label %if.then17, label %if.end18

if.then17:                                        ; preds = %land.lhs.true
  store i32 2, ptr %retval, align 4
  br label %return

if.end18:                                         ; preds = %land.lhs.true, %if.end12
  %12 = load i32, ptr %csrno.addr, align 4
  %idxprom19 = sext i32 %12 to i64
  %arrayidx20 = getelementptr [4096 x %struct.riscv_csr_operations], ptr @csr_ops, i64 0, i64 %idxprom19
  %predicate21 = getelementptr inbounds %struct.riscv_csr_operations, ptr %arrayidx20, i32 0, i32 1
  %13 = load ptr, ptr %predicate21, align 8
  %14 = load ptr, ptr %env.addr, align 8
  %15 = load i32, ptr %csrno.addr, align 4
  %call22 = call i32 %13(ptr noundef %14, i32 noundef %15)
  store i32 %call22, ptr %ret, align 4
  %16 = load i32, ptr %ret, align 4
  %cmp23 = icmp ne i32 %16, -1
  br i1 %cmp23, label %if.then25, label %if.end26

if.then25:                                        ; preds = %if.end18
  %17 = load i32, ptr %ret, align 4
  store i32 %17, ptr %retval, align 4
  br label %return

if.end26:                                         ; preds = %if.end18
  store i32 -1, ptr %retval, align 4
  br label %return

return:                                           ; preds = %if.end26, %if.then25, %if.then17, %if.then11, %if.then6, %if.then
  %18 = load i32, ptr %retval, align 4
  ret i32 %18
}

; Function Attrs: nounwind sspstrong uwtable
define dso_local i32 @riscv_csrrw(ptr noundef %env, i32 noundef %csrno, ptr noundef %ret_value, i64 noundef %new_value, i64 noundef %write_mask) #0 {
entry:
  %retval = alloca i32, align 4
  %env.addr = alloca ptr, align 8
  %csrno.addr = alloca i32, align 4
  %ret_value.addr = alloca ptr, align 8
  %new_value.addr = alloca i64, align 8
  %write_mask.addr = alloca i64, align 8
  %ret = alloca i32, align 4
  store ptr %env, ptr %env.addr, align 8
  store i32 %csrno, ptr %csrno.addr, align 4
  store ptr %ret_value, ptr %ret_value.addr, align 8
  store i64 %new_value, ptr %new_value.addr, align 8
  store i64 %write_mask, ptr %write_mask.addr, align 8
  %0 = load ptr, ptr %env.addr, align 8
  %1 = load i32, ptr %csrno.addr, align 4
  %2 = load i64, ptr %write_mask.addr, align 8
  %tobool = icmp ne i64 %2, 0
  %call = call i32 @riscv_csrrw_check(ptr noundef %0, i32 noundef %1, i1 noundef zeroext %tobool)
  store i32 %call, ptr %ret, align 4
  %3 = load i32, ptr %ret, align 4
  %cmp = icmp ne i32 %3, -1
  br i1 %cmp, label %if.then, label %if.end

if.then:                                          ; preds = %entry
  %4 = load i32, ptr %ret, align 4
  store i32 %4, ptr %retval, align 4
  br label %return

if.end:                                           ; preds = %entry
  %5 = load ptr, ptr %env.addr, align 8
  %6 = load i32, ptr %csrno.addr, align 4
  %7 = load ptr, ptr %ret_value.addr, align 8
  %8 = load i64, ptr %new_value.addr, align 8
  %9 = load i64, ptr %write_mask.addr, align 8
  %call1 = call i32 @riscv_csrrw_do64(ptr noundef %5, i32 noundef %6, ptr noundef %7, i64 noundef %8, i64 noundef %9)
  store i32 %call1, ptr %retval, align 4
  br label %return

return:                                           ; preds = %if.end, %if.then
  %10 = load i32, ptr %retval, align 4
  ret i32 %10
}