; Function Attrs: nounwind sspstrong uwtable
define dso_local i32 @riscv_csrrw(ptr noundef %env, i32 noundef %csrno, ptr noundef %ret_value, i64 noundef %new_value, i64 noundef %write_mask) local_unnamed_addr #2 {
entry:
  %old_value.i = alloca i64, align 8
  %tobool = icmp ne i64 %write_mask, 0
  %conv.i = sext i32 %csrno to i64
  %0 = and i32 %csrno, 3072
  %cmp.i = icmp eq i32 %0, 3072
  %arrayidx.i = getelementptr [4096 x %struct.riscv_csr_operations], ptr @csr_ops, i64 0, i64 %conv.i
  %min_priv_ver.i = getelementptr inbounds nuw i8, ptr %arrayidx.i, i64 56
  %1 = load i32, ptr %min_priv_ver.i, align 8
  %ext_zicsr.i = getelementptr i8, ptr %env, i64 5162
  %2 = load i8, ptr %ext_zicsr.i, align 2
  %tobool.i = trunc i8 %2 to i1
  br i1 %tobool.i, label %if.end.i, label %return

if.end.i:                                         ; preds = %entry
  %predicate.i = getelementptr inbounds nuw i8, ptr %arrayidx.i, i64 8
  %3 = load ptr, ptr %predicate.i, align 8
  %tobool5.not.i = icmp eq ptr %3, null
  br i1 %tobool5.not.i, label %return, label %if.end7.i

if.end7.i:                                        ; preds = %if.end.i
  %priv_ver.i = getelementptr inbounds nuw i8, ptr %env, i64 4984
  %4 = load i64, ptr %priv_ver.i, align 8
  %conv8.i = sext i32 %1 to i64
  %cmp9.i = icmp ult i64 %4, %conv8.i
  %brmerge.not.i = and i1 %cmp.i, %tobool
  %or.cond.i = or i1 %brmerge.not.i, %cmp9.i
  br i1 %or.cond.i, label %return, label %riscv_csrrw_check.exit

riscv_csrrw_check.exit:                           ; preds = %if.end7.i
  %call22.i = tail call i32 %3(ptr noundef nonnull %env, i32 noundef %csrno) #11
  %cmp.not = icmp eq i32 %call22.i, -1
  br i1 %cmp.not, label %if.end, label %return

if.end:                                           ; preds = %riscv_csrrw_check.exit
  call void @llvm.lifetime.start.p0(i64 8, ptr nonnull %old_value.i)
  store i64 0, ptr %old_value.i, align 8
  %op.i = getelementptr inbounds nuw i8, ptr %arrayidx.i, i64 32
  %5 = load ptr, ptr %op.i, align 16
  %tobool.not.i = icmp eq ptr %5, null
  br i1 %tobool.not.i, label %if.end.i7, label %if.then.i

if.then.i:                                        ; preds = %if.end
  %call.i = tail call i32 %5(ptr noundef nonnull %env, i32 noundef %csrno, ptr noundef %ret_value, i64 noundef %new_value, i64 noundef %write_mask) #11
  br label %riscv_csrrw_do64.exit

if.end.i7:                                        ; preds = %if.end
  %tobool4.not.i = icmp eq ptr %ret_value, null
  br i1 %tobool4.not.i, label %if.end17.i, label %if.then5.i

if.then5.i:                                       ; preds = %if.end.i7
  %read.i = getelementptr inbounds nuw i8, ptr %arrayidx.i, i64 16
  %6 = load ptr, ptr %read.i, align 16
  %tobool8.not.i = icmp eq ptr %6, null
  br i1 %tobool8.not.i, label %riscv_csrrw_do64.exit, label %if.end10.i

if.end10.i:                                       ; preds = %if.then5.i
  %call14.i = call i32 %6(ptr noundef nonnull %env, i32 noundef %csrno, ptr noundef nonnull %old_value.i) #11
  %cmp.not.i = icmp eq i32 %call14.i, -1
  br i1 %cmp.not.i, label %if.end17.i, label %riscv_csrrw_do64.exit

if.end17.i:                                       ; preds = %if.end10.i, %if.end.i7
  %tobool18.not.i = icmp eq i64 %write_mask, 0
  br i1 %tobool18.not.i, label %if.end33.i, label %if.then19.i

if.then19.i:                                      ; preds = %if.end17.i
  %write.i = getelementptr inbounds nuw i8, ptr %arrayidx.i, i64 24
  %7 = load ptr, ptr %write.i, align 8
  %tobool23.not.i = icmp eq ptr %7, null
  br i1 %tobool23.not.i, label %if.end33.i, label %if.then24.i

if.then24.i:                                      ; preds = %if.then19.i
  %8 = load i64, ptr %old_value.i, align 8
  %not.i = xor i64 %write_mask, -1
  %and.i = and i64 %8, %not.i
  %and20.i = and i64 %write_mask, %new_value
  %or.i = or disjoint i64 %and.i, %and20.i
  %call28.i = call i32 %7(ptr noundef nonnull %env, i32 noundef %csrno, i64 noundef %or.i) #11
  %cmp29.not.i = icmp ne i32 %call28.i, -1
  %brmerge.i = or i1 %tobool4.not.i, %cmp29.not.i
  br i1 %brmerge.i, label %riscv_csrrw_do64.exit, label %if.then35.i

if.end33.i:                                       ; preds = %if.then19.i, %if.end17.i
  br i1 %tobool4.not.i, label %riscv_csrrw_do64.exit, label %if.then35.i

if.then35.i:                                      ; preds = %if.end33.i, %if.then24.i
  %9 = load i64, ptr %old_value.i, align 8
  store i64 %9, ptr %ret_value, align 8
  br label %riscv_csrrw_do64.exit

riscv_csrrw_do64.exit:                            ; preds = %if.then.i, %if.then5.i, %if.end10.i, %if.then24.i, %if.end33.i, %if.then35.i
  %retval.0.i6 = phi i32 [ %call.i, %if.then.i ], [ 2, %if.then5.i ], [ %call14.i, %if.end10.i ], [ %call28.i, %if.then24.i ], [ -1, %if.then35.i ], [ -1, %if.end33.i ]
  call void @llvm.lifetime.end.p0(i64 8, ptr nonnull %old_value.i)
  br label %return

return:                                           ; preds = %if.end7.i, %if.end.i, %entry, %riscv_csrrw_check.exit, %riscv_csrrw_do64.exit
  %retval.0 = phi i32 [ %retval.0.i6, %riscv_csrrw_do64.exit ], [ %call22.i, %riscv_csrrw_check.exit ], [ 2, %entry ], [ 2, %if.end.i ], [ 2, %if.end7.i ]
  ret i32 %retval.0
}